; Function Attrs: mustprogress uwtable
define void @_ZN6LibRaw25phase_one_free_tempbufferEv(ptr noundef nonnull align 8 dereferenceable(767680) %0) local_unnamed_addr #0 align 2 {
  %2 = getelementptr inbounds nuw i8, ptr %0, i64 193640
  %3 = getelementptr inbounds nuw i8, ptr %0, i64 193648
  %4 = load ptr, ptr %3, align 8, !tbaa !71
  tail call void @_ZN6LibRaw4freeEPv(ptr noundef nonnull align 8 dereferenceable(767680) %0, ptr noundef %4)
  %5 = load ptr, ptr %2, align 8, !tbaa !72
  store ptr %5, ptr %3, align 8, !tbaa !71
  %6 = getelementptr inbounds nuw i8, ptr %0, i64 5500
  %7 = load i32, ptr %6, align 4, !tbaa !6
  %8 = and i32 %7, 8388608
  %.not = icmp eq i32 %8, 0
  br i1 %.not, label %10, label %9

9:                                                ; preds = %1
  store ptr null, ptr %2, align 8, !tbaa !72
  br label %10

10:                                               ; preds = %9, %1
  ret void
}